; Function Attrs: mustprogress uwtable
define void @_ZN7rocksdb13DataBlockIter8NextImplEv(ptr noundef nonnull align 8 dereferenceable(408) %this) unnamed_addr #1 align 2 {
entry:
  %is_shared = alloca i8, align 1
  store i8 0, ptr %is_shared, align 1
  %call.i = call noundef zeroext i1 @_ZN7rocksdb9BlockIterINS_5SliceEE12ParseNextKeyINS_11DecodeEntryEEEbPb(ptr noundef nonnull align 8 dereferenceable(320) %this, ptr noundef nonnull %is_shared)
  %cur_entry_idx_ = getelementptr inbounds i8, ptr %this, i64 296
  %0 = load i32, ptr %cur_entry_idx_, align 8
  %inc = add nsw i32 %0, 1
  store i32 %inc, ptr %cur_entry_idx_, align 8
  ret void
}